target datalayout = "e-m:e-p270:32:32-p271:32:32-p272:64:64-i64:64-i128:128-f80:128-n8:16:32:64-S128"
target triple = "x86_64-unknown-linux-gnu"

%class.b2World = type <{ %class.b2BlockAllocator, %class.b2StackAllocator, %class.b2ContactManager, ptr, ptr, i32, i32, %struct.b2Vec2, i8, [7 x i8], ptr, ptr, float, i8, i8, i8, i8, i8, i8, i8, i8, %struct.b2Profile, [4 x i8] }>
%class.b2BlockAllocator = type { ptr, i32, i32, [14 x ptr] }
%class.b2StackAllocator = type <{ [102400 x i8], i32, i32, i32, [4 x i8], [32 x %struct.b2StackEntry], i32, [4 x i8] }>
%struct.b2StackEntry = type { ptr, i32, i8 }
%class.b2ContactManager = type { %class.b2BroadPhase, ptr, i32, ptr, ptr, ptr }
%class.b2BroadPhase = type <{ %class.b2DynamicTree, i32, [4 x i8], ptr, i32, i32, ptr, i32, i32, i32, [4 x i8] }>
%class.b2DynamicTree = type { i32, ptr, i32, i32, i32, i32 }
%struct.b2Vec2 = type { float, float }
%struct.b2Profile = type { float, float, float, float, float, float, float, float }

; Function Attrs: mustprogress uwtable
define void @_ZN7b2WorldC2ERK6b2Vec2(ptr noundef nonnull align 8 dereferenceable(103284) %this, ptr noundef nonnull align 4 dereferenceable(8) %gravity) unnamed_addr #0 align 2 personality ptr @__gxx_personality_v0 {
entry:
  %this.addr = alloca ptr, align 8
  %gravity.addr = alloca ptr, align 8
  %exn.slot = alloca ptr, align 8
  %ehselector.slot = alloca i32, align 4
  store ptr %this, ptr %this.addr, align 8
  store ptr %gravity, ptr %gravity.addr, align 8
  %this1 = load ptr, ptr %this.addr, align 8
  %m_blockAllocator = getelementptr inbounds %class.b2World, ptr %this1, i32 0, i32 0
  call void @_ZN16b2BlockAllocatorC1Ev(ptr noundef nonnull align 8 dereferenceable(128) %m_blockAllocator)
  %m_stackAllocator = getelementptr inbounds %class.b2World, ptr %this1, i32 0, i32 1
  invoke void @_ZN16b2StackAllocatorC1Ev(ptr noundef nonnull align 8 dereferenceable(102932) %m_stackAllocator)
          to label %invoke.cont unwind label %lpad

invoke.cont:                                      ; preds = %entry
  %m_contactManager = getelementptr inbounds %class.b2World, ptr %this1, i32 0, i32 2
  invoke void @_ZN16b2ContactManagerC1Ev(ptr noundef nonnull align 8 dereferenceable(120) %m_contactManager)
          to label %invoke.cont3 unwind label %lpad2

invoke.cont3:                                     ; preds = %invoke.cont
  %m_destructionListener = getelementptr inbounds %class.b2World, ptr %this1, i32 0, i32 10
  store ptr null, ptr %m_destructionListener, align 8
  %m_debugDraw = getelementptr inbounds %class.b2World, ptr %this1, i32 0, i32 11
  store ptr null, ptr %m_debugDraw, align 8
  %m_bodyList = getelementptr inbounds %class.b2World, ptr %this1, i32 0, i32 3
  store ptr null, ptr %m_bodyList, align 8
  %m_jointList = getelementptr inbounds %class.b2World, ptr %this1, i32 0, i32 4
  store ptr null, ptr %m_jointList, align 8
  %m_bodyCount = getelementptr inbounds %class.b2World, ptr %this1, i32 0, i32 5
  store i32 0, ptr %m_bodyCount, align 8
  %m_jointCount = getelementptr inbounds %class.b2World, ptr %this1, i32 0, i32 6
  store i32 0, ptr %m_jointCount, align 4
  %m_warmStarting = getelementptr inbounds %class.b2World, ptr %this1, i32 0, i32 16
  store i8 1, ptr %m_warmStarting, align 1
  %m_continuousPhysics = getelementptr inbounds %class.b2World, ptr %this1, i32 0, i32 17
  store i8 1, ptr %m_continuousPhysics, align 8
  %m_subStepping = getelementptr inbounds %class.b2World, ptr %this1, i32 0, i32 18
  store i8 0, ptr %m_subStepping, align 1
  %m_stepComplete = getelementptr inbounds %class.b2World, ptr %this1, i32 0, i32 19
  store i8 1, ptr %m_stepComplete, align 2
  %m_allowSleep = getelementptr inbounds %class.b2World, ptr %this1, i32 0, i32 8
  store i8 1, ptr %m_allowSleep, align 8
  %0 = load ptr, ptr %gravity.addr, align 8
  %m_gravity4 = getelementptr inbounds %class.b2World, ptr %this1, i32 0, i32 7
  call void @llvm.memcpy.p0.p0.i64(ptr align 8 %m_gravity4, ptr align 4 %0, i64 8, i1 false)
  %m_newContacts = getelementptr inbounds %class.b2World, ptr %this1, i32 0, i32 13
  store i8 0, ptr %m_newContacts, align 4
  %m_locked = getelementptr inbounds %class.b2World, ptr %this1, i32 0, i32 14
  store i8 0, ptr %m_locked, align 1
  %m_clearForces = getelementptr inbounds %class.b2World, ptr %this1, i32 0, i32 15
  store i8 1, ptr %m_clearForces, align 2
  %m_inv_dt0 = getelementptr inbounds %class.b2World, ptr %this1, i32 0, i32 12
  store float 0.000000e+00, ptr %m_inv_dt0, align 8
  %m_blockAllocator5 = getelementptr inbounds %class.b2World, ptr %this1, i32 0, i32 0
  %m_contactManager6 = getelementptr inbounds %class.b2World, ptr %this1, i32 0, i32 2
  %m_allocator = getelementptr inbounds %class.b2ContactManager, ptr %m_contactManager6, i32 0, i32 5
  store ptr %m_blockAllocator5, ptr %m_allocator, align 8
  %m_profile7 = getelementptr inbounds %class.b2World, ptr %this1, i32 0, i32 21
  call void @llvm.memset.p0.i64(ptr align 4 %m_profile7, i8 0, i64 32, i1 false)
  ret void

lpad:                                             ; preds = %entry
  %1 = landingpad { ptr, i32 }
          cleanup
  %2 = extractvalue { ptr, i32 } %1, 0
  store ptr %2, ptr %exn.slot, align 8
  %3 = extractvalue { ptr, i32 } %1, 1
  store i32 %3, ptr %ehselector.slot, align 4
  br label %ehcleanup

lpad2:                                            ; preds = %invoke.cont
  %4 = landingpad { ptr, i32 }
          cleanup
  %5 = extractvalue { ptr, i32 } %4, 0
  store ptr %5, ptr %exn.slot, align 8
  %6 = extractvalue { ptr, i32 } %4, 1
  store i32 %6, ptr %ehselector.slot, align 4
  call void @_ZN16b2StackAllocatorD1Ev(ptr noundef nonnull align 8 dereferenceable(102932) %m_stackAllocator) #9
  br label %ehcleanup

ehcleanup:                                        ; preds = %lpad2, %lpad
  call void @_ZN16b2BlockAllocatorD1Ev(ptr noundef nonnull align 8 dereferenceable(128) %m_blockAllocator) #9
  br label %eh.resume

eh.resume:                                        ; preds = %ehcleanup
  %exn = load ptr, ptr %exn.slot, align 8
  %sel = load i32, ptr %ehselector.slot, align 4
  %lpad.val = insertvalue { ptr, i32 } poison, ptr %exn, 0
  %lpad.val8 = insertvalue { ptr, i32 } %lpad.val, i32 %sel, 1
  resume { ptr, i32 } %lpad.val8
}