; Function Attrs: mustprogress uwtable
define void @_ZN7b2WorldC2ERK6b2Vec2(ptr noundef nonnull align 8 dereferenceable(103284) %this, ptr noundef nonnull readonly align 4 captures(none) dereferenceable(8) %gravity) unnamed_addr #0 align 2 personality ptr @__gxx_personality_v0 {
entry:
  tail call void @_ZN16b2BlockAllocatorC1Ev(ptr noundef nonnull align 8 dereferenceable(128) %this)
  %m_stackAllocator = getelementptr inbounds nuw i8, ptr %this, i64 128
  invoke void @_ZN16b2StackAllocatorC1Ev(ptr noundef nonnull align 8 dereferenceable(102932) %m_stackAllocator)
          to label %invoke.cont unwind label %lpad

invoke.cont:                                      ; preds = %entry
  %m_contactManager = getelementptr inbounds nuw i8, ptr %this, i64 103064
  invoke void @_ZN16b2ContactManagerC1Ev(ptr noundef nonnull align 8 dereferenceable(120) %m_contactManager)
          to label %invoke.cont3 unwind label %lpad2

invoke.cont3:                                     ; preds = %invoke.cont
  %m_destructionListener = getelementptr inbounds nuw i8, ptr %this, i64 103224
  %m_bodyList = getelementptr inbounds nuw i8, ptr %this, i64 103184
  %m_warmStarting = getelementptr inbounds nuw i8, ptr %this, i64 103247
  tail call void @llvm.memset.p0.i64(ptr noundef nonnull align 8 dereferenceable(24) %m_bodyList, i8 0, i64 24, i1 false)
  tail call void @llvm.memset.p0.i64(ptr noundef nonnull align 8 dereferenceable(16) %m_destructionListener, i8 0, i64 16, i1 false)
  store i8 1, ptr %m_warmStarting, align 1
  %m_continuousPhysics = getelementptr inbounds nuw i8, ptr %this, i64 103248
  store i8 1, ptr %m_continuousPhysics, align 8
  %m_subStepping = getelementptr inbounds nuw i8, ptr %this, i64 103249
  store i8 0, ptr %m_subStepping, align 1
  %m_stepComplete = getelementptr inbounds nuw i8, ptr %this, i64 103250
  store i8 1, ptr %m_stepComplete, align 2
  %m_allowSleep = getelementptr inbounds nuw i8, ptr %this, i64 103216
  store i8 1, ptr %m_allowSleep, align 8
  %m_gravity4 = getelementptr inbounds nuw i8, ptr %this, i64 103208
  %0 = load i64, ptr %gravity, align 4
  store i64 %0, ptr %m_gravity4, align 8
  %m_newContacts = getelementptr inbounds nuw i8, ptr %this, i64 103244
  store i8 0, ptr %m_newContacts, align 4
  %m_locked = getelementptr inbounds nuw i8, ptr %this, i64 103245
  store i8 0, ptr %m_locked, align 1
  %m_clearForces = getelementptr inbounds nuw i8, ptr %this, i64 103246
  store i8 1, ptr %m_clearForces, align 2
  %m_inv_dt0 = getelementptr inbounds nuw i8, ptr %this, i64 103240
  store float 0.000000e+00, ptr %m_inv_dt0, align 8
  %m_allocator = getelementptr inbounds nuw i8, ptr %this, i64 103176
  store ptr %this, ptr %m_allocator, align 8
  %m_profile7 = getelementptr inbounds nuw i8, ptr %this, i64 103252
  tail call void @llvm.memset.p0.i64(ptr noundef nonnull align 4 dereferenceable(32) %m_profile7, i8 0, i64 32, i1 false)
  ret void

lpad:                                             ; preds = %entry
  %1 = landingpad { ptr, i32 }
          cleanup
  br label %ehcleanup

lpad2:                                            ; preds = %invoke.cont
  %2 = landingpad { ptr, i32 }
          cleanup
  tail call void @_ZN16b2StackAllocatorD1Ev(ptr noundef nonnull align 8 dereferenceable(102932) %m_stackAllocator) #16
  br label %ehcleanup

ehcleanup:                                        ; preds = %lpad2, %lpad
  %.pn = phi { ptr, i32 } [ %2, %lpad2 ], [ %1, %lpad ]
  tail call void @_ZN16b2BlockAllocatorD1Ev(ptr noundef nonnull align 8 dereferenceable(128) %this) #16
  resume { ptr, i32 } %.pn
}